target datalayout = "e-m:e-p270:32:32-p271:32:32-p272:64:64-i64:64-i128:128-f80:128-n8:16:32:64-S128"
target triple = "x86_64-pc-linux-gnu"

%"class.std::__cxx11::basic_string" = type { %"struct.std::__cxx11::basic_string<char>::_Alloc_hider", i64, %union.anon }
%"struct.std::__cxx11::basic_string<char>::_Alloc_hider" = type { ptr }
%union.anon = type { i64, [8 x i8] }
%"struct.pxrInternal_v0_24__pxrReserved__::HgiShaderFunctionComputeDesc" = type { %"class.pxrInternal_v0_24__pxrReserved__::GfVec3i" }
%"class.pxrInternal_v0_24__pxrReserved__::GfVec3i" = type { [3 x i32] }
%"struct.pxrInternal_v0_24__pxrReserved__::HgiShaderFunctionParamDesc" = type { %"class.std::__cxx11::basic_string", %"class.std::__cxx11::basic_string", i32, i32, i32, i32, i32, %"class.std::__cxx11::basic_string", %"class.std::__cxx11::basic_string" }
%"struct.pxrInternal_v0_24__pxrReserved__::HgiShaderFunctionTessellationDesc" = type { i32, i32, i32, %"class.std::__cxx11::basic_string", %"class.std::__cxx11::basic_string" }
%"struct.pxrInternal_v0_24__pxrReserved__::HgiShaderFunctionDesc" = type <{ %"class.std::__cxx11::basic_string", i32, [4 x i8], ptr, ptr, ptr, %"class.std::vector.3", %"class.std::vector.8", %"class.std::vector.13", %"class.std::vector.13", %"class.std::vector.13", %"class.std::vector.13", %"class.std::vector.18", %"class.std::vector.18", %"struct.pxrInternal_v0_24__pxrReserved__::HgiShaderFunctionComputeDesc", [4 x i8], %"struct.pxrInternal_v0_24__pxrReserved__::HgiShaderFunctionTessellationDesc", %"struct.pxrInternal_v0_24__pxrReserved__::HgiShaderFunctionGeometryDesc", %"struct.pxrInternal_v0_24__pxrReserved__::HgiShaderFunctionFragmentDesc", [7 x i8] }>
%"class.std::vector.3" = type { %"struct.std::_Vector_base.4" }
%"struct.std::_Vector_base.4" = type { %"struct.std::_Vector_base<pxrInternal_v0_24__pxrReserved__::HgiShaderFunctionTextureDesc, std::allocator<pxrInternal_v0_24__pxrReserved__::HgiShaderFunctionTextureDesc>>::_Vector_impl" }
%"struct.std::_Vector_base<pxrInternal_v0_24__pxrReserved__::HgiShaderFunctionTextureDesc, std::allocator<pxrInternal_v0_24__pxrReserved__::HgiShaderFunctionTextureDesc>>::_Vector_impl" = type { %"struct.std::_Vector_base<pxrInternal_v0_24__pxrReserved__::HgiShaderFunctionTextureDesc, std::allocator<pxrInternal_v0_24__pxrReserved__::HgiShaderFunctionTextureDesc>>::_Vector_impl_data" }
%"struct.std::_Vector_base<pxrInternal_v0_24__pxrReserved__::HgiShaderFunctionTextureDesc, std::allocator<pxrInternal_v0_24__pxrReserved__::HgiShaderFunctionTextureDesc>>::_Vector_impl_data" = type { ptr, ptr, ptr }
%"class.std::vector.8" = type { %"struct.std::_Vector_base.9" }
%"struct.std::_Vector_base.9" = type { %"struct.std::_Vector_base<pxrInternal_v0_24__pxrReserved__::HgiShaderFunctionBufferDesc, std::allocator<pxrInternal_v0_24__pxrReserved__::HgiShaderFunctionBufferDesc>>::_Vector_impl" }
%"struct.std::_Vector_base<pxrInternal_v0_24__pxrReserved__::HgiShaderFunctionBufferDesc, std::allocator<pxrInternal_v0_24__pxrReserved__::HgiShaderFunctionBufferDesc>>::_Vector_impl" = type { %"struct.std::_Vector_base<pxrInternal_v0_24__pxrReserved__::HgiShaderFunctionBufferDesc, std::allocator<pxrInternal_v0_24__pxrReserved__::HgiShaderFunctionBufferDesc>>::_Vector_impl_data" }
%"struct.std::_Vector_base<pxrInternal_v0_24__pxrReserved__::HgiShaderFunctionBufferDesc, std::allocator<pxrInternal_v0_24__pxrReserved__::HgiShaderFunctionBufferDesc>>::_Vector_impl_data" = type { ptr, ptr, ptr }
%"class.std::vector.13" = type { %"struct.std::_Vector_base.14" }
%"struct.std::_Vector_base.14" = type { %"struct.std::_Vector_base<pxrInternal_v0_24__pxrReserved__::HgiShaderFunctionParamDesc, std::allocator<pxrInternal_v0_24__pxrReserved__::HgiShaderFunctionParamDesc>>::_Vector_impl" }
%"struct.std::_Vector_base<pxrInternal_v0_24__pxrReserved__::HgiShaderFunctionParamDesc, std::allocator<pxrInternal_v0_24__pxrReserved__::HgiShaderFunctionParamDesc>>::_Vector_impl" = type { %"struct.std::_Vector_base<pxrInternal_v0_24__pxrReserved__::HgiShaderFunctionParamDesc, std::allocator<pxrInternal_v0_24__pxrReserved__::HgiShaderFunctionParamDesc>>::_Vector_impl_data" }
%"struct.std::_Vector_base<pxrInternal_v0_24__pxrReserved__::HgiShaderFunctionParamDesc, std::allocator<pxrInternal_v0_24__pxrReserved__::HgiShaderFunctionParamDesc>>::_Vector_impl_data" = type { ptr, ptr, ptr }
%"class.std::vector.18" = type { %"struct.std::_Vector_base.19" }
%"struct.std::_Vector_base.19" = type { %"struct.std::_Vector_base<pxrInternal_v0_24__pxrReserved__::HgiShaderFunctionParamBlockDesc, std::allocator<pxrInternal_v0_24__pxrReserved__::HgiShaderFunctionParamBlockDesc>>::_Vector_impl" }
%"struct.std::_Vector_base<pxrInternal_v0_24__pxrReserved__::HgiShaderFunctionParamBlockDesc, std::allocator<pxrInternal_v0_24__pxrReserved__::HgiShaderFunctionParamBlockDesc>>::_Vector_impl" = type { %"struct.std::_Vector_base<pxrInternal_v0_24__pxrReserved__::HgiShaderFunctionParamBlockDesc, std::allocator<pxrInternal_v0_24__pxrReserved__::HgiShaderFunctionParamBlockDesc>>::_Vector_impl_data" }
%"struct.std::_Vector_base<pxrInternal_v0_24__pxrReserved__::HgiShaderFunctionParamBlockDesc, std::allocator<pxrInternal_v0_24__pxrReserved__::HgiShaderFunctionParamBlockDesc>>::_Vector_impl_data" = type { ptr, ptr, ptr }
%"struct.pxrInternal_v0_24__pxrReserved__::HgiShaderFunctionGeometryDesc" = type { i32, i32, %"class.std::__cxx11::basic_string" }
%"struct.pxrInternal_v0_24__pxrReserved__::HgiShaderFunctionFragmentDesc" = type { i8 }
%"class.__gnu_cxx::__normal_iterator.27" = type { ptr }

; Function Attrs: mustprogress nounwind uwtable
define linkonce_odr void @_ZN9__gnu_cxx17__normal_iteratorIPN32pxrInternal_v0_24__pxrReserved__26HgiShaderFunctionParamDescESt6vectorIS2_SaIS2_EEEC2ERKS3_(ptr noundef nonnull align 8 dereferenceable(8) %0, ptr noundef nonnull align 8 dereferenceable(8) %1) unnamed_addr #0 comdat align 2 {
  %3 = alloca ptr, align 8
  %4 = alloca ptr, align 8
  store ptr %0, ptr %3, align 8
  store ptr %1, ptr %4, align 8
  %5 = load ptr, ptr %3, align 8
  %6 = getelementptr inbounds nuw %"class.__gnu_cxx::__normal_iterator.27", ptr %5, i32 0, i32 0
  %7 = load ptr, ptr %4, align 8
  %8 = load ptr, ptr %7, align 8
  store ptr %8, ptr %6, align 8
  ret void
}

; Function Attrs: mustprogress uwtable
define linkonce_odr void @_ZNSt15__new_allocatorIN32pxrInternal_v0_24__pxrReserved__26HgiShaderFunctionParamDescEE9constructIS1_JRKS1_EEEvPT_DpOT0_(ptr noundef nonnull align 1 dereferenceable(1) %0, ptr noundef %1, ptr noundef nonnull align 8 dereferenceable(152) %2) #2 comdat align 2 {
  %4 = alloca ptr, align 8
  %5 = alloca ptr, align 8
  %6 = alloca ptr, align 8
  store ptr %0, ptr %4, align 8
  store ptr %1, ptr %5, align 8
  store ptr %2, ptr %6, align 8
  %7 = load ptr, ptr %5, align 8
  %8 = load ptr, ptr %6, align 8
  call void @_ZN32pxrInternal_v0_24__pxrReserved__26HgiShaderFunctionParamDescC2ERKS0_(ptr noundef nonnull align 8 dereferenceable(152) %7, ptr noundef nonnull align 8 dereferenceable(152) %8)
  ret void
}

; Function Attrs: mustprogress nounwind uwtable
define linkonce_odr ptr @_ZNSt6vectorIN32pxrInternal_v0_24__pxrReserved__26HgiShaderFunctionParamDescESaIS1_EE3endEv(ptr noundef nonnull align 8 dereferenceable(24) %0) #0 comdat align 2 {
  %2 = alloca %"class.__gnu_cxx::__normal_iterator.27", align 8
  %3 = alloca ptr, align 8
  store ptr %0, ptr %3, align 8
  %4 = load ptr, ptr %3, align 8
  %5 = getelementptr inbounds nuw %"struct.std::_Vector_base.14", ptr %4, i32 0, i32 0
  %6 = getelementptr inbounds nuw %"struct.std::_Vector_base<pxrInternal_v0_24__pxrReserved__::HgiShaderFunctionParamDesc, std::allocator<pxrInternal_v0_24__pxrReserved__::HgiShaderFunctionParamDesc>>::_Vector_impl_data", ptr %5, i32 0, i32 1
  call void @_ZN9__gnu_cxx17__normal_iteratorIPN32pxrInternal_v0_24__pxrReserved__26HgiShaderFunctionParamDescESt6vectorIS2_SaIS2_EEEC2ERKS3_(ptr noundef nonnull align 8 dereferenceable(8) %2, ptr noundef nonnull align 8 dereferenceable(8) %6) #10
  %7 = getelementptr inbounds nuw %"class.__gnu_cxx::__normal_iterator.27", ptr %2, i32 0, i32 0
  %8 = load ptr, ptr %7, align 8
  ret ptr %8
}

; Function Attrs: mustprogress uwtable
define linkonce_odr void @_ZNSt16allocator_traitsISaIN32pxrInternal_v0_24__pxrReserved__26HgiShaderFunctionParamDescEEE9constructIS1_JRKS1_EEEvRS2_PT_DpOT0_(ptr noundef nonnull align 1 dereferenceable(1) %0, ptr noundef %1, ptr noundef nonnull align 8 dereferenceable(152) %2) #2 comdat align 2 {
  %4 = alloca ptr, align 8
  %5 = alloca ptr, align 8
  %6 = alloca ptr, align 8
  store ptr %0, ptr %4, align 8
  store ptr %1, ptr %5, align 8
  store ptr %2, ptr %6, align 8
  %7 = load ptr, ptr %4, align 8
  %8 = load ptr, ptr %5, align 8
  %9 = load ptr, ptr %6, align 8
  call void @_ZNSt15__new_allocatorIN32pxrInternal_v0_24__pxrReserved__26HgiShaderFunctionParamDescEE9constructIS1_JRKS1_EEEvPT_DpOT0_(ptr noundef nonnull align 1 dereferenceable(1) %7, ptr noundef %8, ptr noundef nonnull align 8 dereferenceable(152) %9)
  ret void
}

; Function Attrs: mustprogress uwtable
define linkonce_odr void @_ZNSt6vectorIN32pxrInternal_v0_24__pxrReserved__26HgiShaderFunctionParamDescESaIS1_EE9push_backERKS1_(ptr noundef nonnull align 8 dereferenceable(24) %0, ptr noundef nonnull align 8 dereferenceable(152) %1) #2 comdat align 2 {
  %3 = alloca ptr, align 8
  %4 = alloca ptr, align 8
  %5 = alloca %"class.__gnu_cxx::__normal_iterator.27", align 8
  store ptr %0, ptr %3, align 8
  store ptr %1, ptr %4, align 8
  %6 = load ptr, ptr %3, align 8
  %7 = getelementptr inbounds nuw %"struct.std::_Vector_base.14", ptr %6, i32 0, i32 0
  %8 = getelementptr inbounds nuw %"struct.std::_Vector_base<pxrInternal_v0_24__pxrReserved__::HgiShaderFunctionParamDesc, std::allocator<pxrInternal_v0_24__pxrReserved__::HgiShaderFunctionParamDesc>>::_Vector_impl_data", ptr %7, i32 0, i32 1
  %9 = load ptr, ptr %8, align 8
  %10 = getelementptr inbounds nuw %"struct.std::_Vector_base.14", ptr %6, i32 0, i32 0
  %11 = getelementptr inbounds nuw %"struct.std::_Vector_base<pxrInternal_v0_24__pxrReserved__::HgiShaderFunctionParamDesc, std::allocator<pxrInternal_v0_24__pxrReserved__::HgiShaderFunctionParamDesc>>::_Vector_impl_data", ptr %10, i32 0, i32 2
  %12 = load ptr, ptr %11, align 8
  %13 = icmp ne ptr %9, %12
  br i1 %13, label %14, label %24

14:                                               ; preds = %2
  %15 = getelementptr inbounds nuw %"struct.std::_Vector_base.14", ptr %6, i32 0, i32 0
  %16 = getelementptr inbounds nuw %"struct.std::_Vector_base.14", ptr %6, i32 0, i32 0
  %17 = getelementptr inbounds nuw %"struct.std::_Vector_base<pxrInternal_v0_24__pxrReserved__::HgiShaderFunctionParamDesc, std::allocator<pxrInternal_v0_24__pxrReserved__::HgiShaderFunctionParamDesc>>::_Vector_impl_data", ptr %16, i32 0, i32 1
  %18 = load ptr, ptr %17, align 8
  %19 = load ptr, ptr %4, align 8
  call void @_ZNSt16allocator_traitsISaIN32pxrInternal_v0_24__pxrReserved__26HgiShaderFunctionParamDescEEE9constructIS1_JRKS1_EEEvRS2_PT_DpOT0_(ptr noundef nonnull align 1 dereferenceable(1) %15, ptr noundef %18, ptr noundef nonnull align 8 dereferenceable(152) %19)
  %20 = getelementptr inbounds nuw %"struct.std::_Vector_base.14", ptr %6, i32 0, i32 0
  %21 = getelementptr inbounds nuw %"struct.std::_Vector_base<pxrInternal_v0_24__pxrReserved__::HgiShaderFunctionParamDesc, std::allocator<pxrInternal_v0_24__pxrReserved__::HgiShaderFunctionParamDesc>>::_Vector_impl_data", ptr %20, i32 0, i32 1
  %22 = load ptr, ptr %21, align 8
  %23 = getelementptr inbounds %"struct.pxrInternal_v0_24__pxrReserved__::HgiShaderFunctionParamDesc", ptr %22, i32 1
  store ptr %23, ptr %21, align 8
  br label %30

24:                                               ; preds = %2
  %25 = call ptr @_ZNSt6vectorIN32pxrInternal_v0_24__pxrReserved__26HgiShaderFunctionParamDescESaIS1_EE3endEv(ptr noundef nonnull align 8 dereferenceable(24) %6) #10
  %26 = getelementptr inbounds nuw %"class.__gnu_cxx::__normal_iterator.27", ptr %5, i32 0, i32 0
  store ptr %25, ptr %26, align 8
  %27 = load ptr, ptr %4, align 8
  %28 = getelementptr inbounds nuw %"class.__gnu_cxx::__normal_iterator.27", ptr %5, i32 0, i32 0
  %29 = load ptr, ptr %28, align 8
  call void @_ZNSt6vectorIN32pxrInternal_v0_24__pxrReserved__26HgiShaderFunctionParamDescESaIS1_EE17_M_realloc_insertIJRKS1_EEEvN9__gnu_cxx17__normal_iteratorIPS1_S3_EEDpOT_(ptr noundef nonnull align 8 dereferenceable(24) %6, ptr %29, ptr noundef nonnull align 8 dereferenceable(152) %27)
  br label %30

30:                                               ; preds = %24, %14
  ret void
}

; Function Attrs: mustprogress uwtable
define void @_ZN32pxrInternal_v0_24__pxrReserved__30HgiShaderFunctionAddStageInputEPNS_21HgiShaderFunctionDescERKNS_26HgiShaderFunctionParamDescE(ptr noundef %0, ptr noundef nonnull align 8 dereferenceable(152) %1) #2 {
  %3 = alloca ptr, align 8
  %4 = alloca ptr, align 8
  store ptr %0, ptr %3, align 8
  store ptr %1, ptr %4, align 8
  %5 = load ptr, ptr %3, align 8
  %6 = getelementptr inbounds nuw %"struct.pxrInternal_v0_24__pxrReserved__::HgiShaderFunctionDesc", ptr %5, i32 0, i32 10
  %7 = load ptr, ptr %4, align 8
  call void @_ZNSt6vectorIN32pxrInternal_v0_24__pxrReserved__26HgiShaderFunctionParamDescESaIS1_EE9push_backERKS1_(ptr noundef nonnull align 8 dereferenceable(24) %6, ptr noundef nonnull align 8 dereferenceable(152) %7)
  ret void
}