; Function Attrs: mustprogress uwtable
define void @_ZN32pxrInternal_v0_24__pxrReserved__30HgiShaderFunctionAddStageInputEPNS_21HgiShaderFunctionDescERKNS_26HgiShaderFunctionParamDescE(ptr noundef %0, ptr noundef nonnull align 8 dereferenceable(152) %1) local_unnamed_addr #3 {
  %3 = getelementptr inbounds nuw i8, ptr %0, i64 168
  %4 = load ptr, ptr %3, align 8
  %5 = getelementptr inbounds nuw i8, ptr %0, i64 176
  %6 = load ptr, ptr %5, align 8
  %.not.i = icmp eq ptr %4, %6
  br i1 %.not.i, label %10, label %7

7:                                                ; preds = %2
  tail call void @_ZN32pxrInternal_v0_24__pxrReserved__26HgiShaderFunctionParamDescC2ERKS0_(ptr noundef nonnull align 8 dereferenceable(152) %4, ptr noundef nonnull align 8 dereferenceable(152) %1)
  %8 = load ptr, ptr %3, align 8
  %9 = getelementptr inbounds nuw i8, ptr %8, i64 152
  store ptr %9, ptr %3, align 8
  br label %_ZNSt6vectorIN32pxrInternal_v0_24__pxrReserved__26HgiShaderFunctionParamDescESaIS1_EE9push_backERKS1_.exit

10:                                               ; preds = %2
  %11 = getelementptr inbounds nuw i8, ptr %0, i64 160
  tail call void @_ZNSt6vectorIN32pxrInternal_v0_24__pxrReserved__26HgiShaderFunctionParamDescESaIS1_EE17_M_realloc_insertIJRKS1_EEEvN9__gnu_cxx17__normal_iteratorIPS1_S3_EEDpOT_(ptr noundef nonnull align 8 dereferenceable(24) %11, ptr %4, ptr noundef nonnull align 8 dereferenceable(152) %1)
  br label %_ZNSt6vectorIN32pxrInternal_v0_24__pxrReserved__26HgiShaderFunctionParamDescESaIS1_EE9push_backERKS1_.exit

_ZNSt6vectorIN32pxrInternal_v0_24__pxrReserved__26HgiShaderFunctionParamDescESaIS1_EE9push_backERKS1_.exit: ; preds = %7, %10
  ret void
}